(dp0
S'units'
p1
S'inches'
p2
sS'dl'
p3
(dp4
sS'gc'
p5
(dp6
I957
((F292.09999999999945
F-749.3
tp7
F50.8
tp8
ssS'tx'
p9
(dp10
sS'ga'
p11
(dp12
sS'cl'
p13
(lp14
sS'cc'
p15
(dp16
sS'gl'
p17
(dp18
I1280
((F745.8766817043563
F-1652.4312693270776
tp19
(F781.7977061886315
F-1688.3522938113565
tp20
tp21
sI1283
((F781.7977061886315
F-1688.3522938113565
tp22
(F1212.8499999999704
F-1257.3000000000573
tp23
tp24
sI388
((F1816.1000000000008
F-1282.6999999999998
tp25
(F1816.1000000000008
F-0.0
tp26
tp27
sI1285
((F1212.8499999999706
F-1257.300000000057
tp28
(F1176.9289755156958
F-1221.3789755157786
tp29
tp30
sI902
((F-298.7308060624148
F101.6
tp31
(F101.60000000000036
F101.6
tp32
tp33
sI1162
((F101.59999999999945
F25.40000000000012
tp34
(F1104.8999999999996
F25.40000000000009
tp35
tp36
sI143
((F603.2500000000002
F-1181.1
tp37
(F101.60000000000014
F-1181.1
tp38
tp39
sI272
((F1714.500000000001
F-1181.1
tp40
(F1212.8500000000008
F-1181.1
tp41
tp42
sI792
((F101.60000000000036
F50.80000000000001
tp43
(F1104.900000000001
F50.80000000000001
tp44
tp45
sI300
(g41
(F1212.8500000000008
F-1282.6999999999998
tp46
tp47
sI694
((F1104.900000000001
F101.6
tp48
(F1104.900000000001
F2.842170943040401e-14
tp49
tp50
sI567
((F1104.900000000001
F101.6
tp51
(F2073.2037589880024
F101.6
tp52
tp53
sI448
((F603.2500000000002
F-1181.1
tp54
(F603.2500000000002
F-1282.6999999999998
tp55
tp56
sI950
((F101.60000000000014
F101.59999999999985
tp57
(F101.59999999999991
F-1181.1
tp58
tp59
sI332
(g46
g25
tp60
sI470
(g55
(F0.0
F-1282.6999999999998
tp61
tp62
sI860
((F2.2737367544323206e-13
F-5.684341886080802e-14
tp63
(F-315.3177610627672
F-5.684341886080802e-14
tp64
tp65
sI997
((F1816.1000000000004
F-1.1368683772161603e-13
tp66
(F2083.1559319882135
F-1.1368683772161603e-13
tp67
tp68
sI746
((F1104.900000000001
F2.842170943040401e-14
tp69
(F1714.500000000001
F-0.0
tp70
tp71
sI624
((F101.60000000000036
F76.2
tp72
(F1104.900000000001
F76.2
tp73
tp74
sI242
((F1714.500000000001
F-0.0
tp75
g40
tp76
sI508
(g61
(F0.0
F-0.0
tp77
tp78
sI1279
((F1176.9289755156956
F-1221.3789755157788
tp79
(F745.8766817043563
F-1652.4312693270776
tp80
tp81
ss.