(dp0
S'dl'
p1
(dp2
S'd4179'
p3
((F7315.2000000039261
F-609.59999999736283
tp4
(F1.2227246770635247e-08
F-1.495209289714694e-09
tp5
(F3683.5434970072747
F-2435.1949676041786
tp6
(I0
I1
I0
tp7
tp8
sS'd4184'
p9
((F17678.399999992387
F-609.59999999862157
tp10
(F17678.399999992387
F14020.799999999312
tp11
(F20093.531548757172
F6611.7304015296377
tp12
(I1
I0
I0
tp13
tp14
sS'd4199'
p15
((F1.2227246770635247e-08
F-1.495209289714694e-09
tp16
(F1.2227246770635247e-08
F6705.5999999943342
tp17
(F-2218.0697937483565
F3466.4183231514562
tp18
(I1
I0
I0
tp19
tp20
sS'd4189'
p21
((F12801.600000045069
F14020.800000042636
tp22
(F17678.400000021367
F14020.800000042636
tp23
(F15272.162101955222
F15235.290327994968
tp24
(I0
I1
I0
tp25
tp26
sS'd4194'
p27
((F17678.400000016241
F-609.59999999736283
tp28
(F7315.2000000039261
F-609.59999999736283
tp29
(F12556.598444646863
F-2435.1949676041786
tp30
g7
tp31
ssS'tx'
p32
(dp33
I4152
(F11826.64866929995
F5170.3421062037851
S'Kitchen'
p34
tp35
sI4153
(F15677.997253078556
F4704.4531646176638
S'Dining Room'
p36
tp37
sI4149
(F3813.3588740186533
F3431.0233909489307
S'Garage'
p38
tp39
sI4150
(F14218.211902775376
F1412.1713107424021
S'Living Room'
p40
tp41
sI4151
(F15115.339871408045
F10399.782189214016
S'Conservatory'
p42
tp43
ssS'cl'
p44
(lp45
sS'cc'
p46
(dp47
sS'gc'
p48
(dp49
sS'ga'
p50
(dp51
I4118
((F7365.999999995257
F3543.3000000190377
tp52
F838.20000001099288
F-90.0
F-45.0
tp53
sI4119
((F7365.999999995257
F3543.3000000190377
tp54
F838.20000001099288
F-90.0
F-45.0
tp55
sI4120
((F8407.4000000005581
F508.00000001368653
tp56
F50.800000000511545
F-90.0
F0.0
tp57
sI4121
((F8407.4000000005581
F508.00000001368653
tp58
F50.800000000511545
F-90.0
F0.0
tp59
sI4122
((F7365.999999995257
F3543.3000000190377
tp60
F838.20000001099288
F-90.0
F-45.0
tp61
sI4123
((F8407.4000000005581
F508.00000001368653
tp62
F50.800000000511545
F-90.0
F0.0
tp63
ssS'units'
p64
S'feet'
p65
sS'gl'
p66
(dp67
I4096
((F16586.200000015666
F6604.0000000010641
tp68
(F17576.799999999756
F6604.0000000010641
tp69
tp70
sI4097
((F17526.000000012787
F13868.400000000123
tp71
(F17526.000000012787
F6705.5999999993273
tp72
tp73
sI4098
((F101.60000000311902
F101.60000000294804
tp74
(F7315.199999995818
F101.60000000294804
tp75
tp76
sI4099
((F7416.7999999885142
F2705.1000000080448
tp77
(F7416.7999999933163
F101.60000000294986
tp78
tp79
sI4100
((F3.6025085137225688e-09
F6705.5999999992473
tp80
(F3.6025085137225688e-09
F4.5220076572149992e-09
tp81
tp82
sI4101
((F7416.7999999930498
F1371.6000000080821
tp83
(F8237.8203984918491
F1371.6000000140323
tp84
tp85
sI4102
((F9817.1000000390577
F723.90000000890541
tp86
(F9956.8000000442262
F723.90000000890541
tp87
tp88
sI4103
((F11087.10000004225
F723.90000000890541
tp89
(F10947.400000037082
F723.90000000890541
tp90
tp91
sI4104
((F10947.400000037082
F723.90000000890541
tp92
(F10947.400000037082
F622.30000001062103
tp93
tp94
sI4105
((F9715.5000000434484
F2247.9000000153592
tp95
(F9715.5000000434484
F622.30000001632379
tp96
tp97
sI4106
((F9956.8000000442262
F622.30000001062103
tp98
(F9715.50000004295
F622.300000010247
tp99
tp100
sI4107
((F9715.5000000434484
F2908.3000000027514
tp101
(F9715.5000000434484
F3822.70000000443
tp102
tp103
sI4108
((F7416.7999999900603
F1600.2000000051512
tp104
(F7950.1480273618972
F1600.2000000150483
tp105
tp106
sI4109
((F7416.7999999900603
F1828.8000000043962
tp107
(F7653.2271773025486
F1828.8000000043962
tp108
tp109
sI4110
((F7315.199999998119
F2705.1000000080448
tp110
(F7315.199999995818
F101.60000000294804
tp111
tp112
sI4111
((F7416.7999999885142
F3543.3000000112766
tp113
(F7416.7999999899657
F3619.5000000101927
tp114
tp115
sI4112
((F7315.199999998119
F3543.3000000112766
tp116
(F7416.7999999885142
F3543.3000000112766
tp117
tp118
sI4113
((F7315.199999998119
F2705.1000000080448
tp119
(F7416.7999999885142
F2705.1000000080448
tp120
tp121
sI4114
((F8610.5999999958713
F3619.5000000089931
tp122
(F8610.5999999958713
F2628.9000000094816
tp123
tp124
sI4115
((F8381.999999994965
F2628.9000000094816
tp125
(F8381.999999994965
F3619.5000000089931
tp126
tp127
sI4116
((F7365.999999995257
F3543.3000000190377
tp128
(F7958.6969039934156
F2950.6030960208791
tp129
tp130
sI4117
((F7416.7999999897829
F2603.5000000114906
tp131
(F8356.5999999905853
F2603.5000000114906
tp132
tp133
sI3838
((F7416.799999995048
F3721.1000000117228
tp134
(F8762.9999999888169
F3721.1000000117228
tp135
tp136
sI3839
((F7416.7999999899657
F3721.1000000120334
tp137
(F7416.7999999933163
F6604.0000000105283
tp138
tp139
sI3840
((F7416.7999999917829
F3619.5000000104255
tp140
(F8661.3999999947846
F3619.5000000104255
tp141
tp142
sI3841
((F7416.7999999944896
F457.20000001020389
tp143
(F8407.3999999996686
F457.20000001409966
tp144
tp145
sI3842
((F8458.1999999955951
F1384.3000000110387
tp146
(F8458.1999999994659
F508.00000001432403
tp147
tp148
sI3843
((F7416.7999999917574
F6604.0000000169875
tp149
(F13665.200000032721
F6604.0000000169875
tp150
tp151
sI3844
((F9956.8000000442262
F723.90000000890541
tp152
(F9956.8000000442262
F622.30000001062103
tp153
tp154
sI3845
((F13665.200000040604
F3721.1000000077374
tp155
(F13665.200000041827
F3098.7999999979725
tp156
tp157
sI3846
((F12928.600000041202
F3098.7999999972199
tp158
(F10883.900000046217
F3098.7999999979725
tp159
tp160
sI3847
((F10883.900000046217
F3098.7999999979725
tp161
(F10883.900000046217
F3822.7000000077323
tp162
tp163
sI3848
((F9994.9000000442975
F3822.7000000067173
tp164
(F9715.500000042015
F3822.7000000077323
tp165
tp166
sI3849
((F8762.9999999965385
F3721.1000000091958
tp167
(F8762.9999999965385
F3543.3000000116272
tp168
tp169
sI3850
((F8762.9999999965385
F3543.3000000116272
tp170
(F8661.399999993555
F3543.3000000116272
tp171
tp172
sI3851
((F8661.399999993555
F3543.3000000116272
tp173
(F8661.399999993555
F3619.5000000138666
tp174
tp175
sI3852
((F9715.500000042015
F2908.3000000075895
tp176
(F9817.1000000436379
F2908.3000000075895
tp177
tp178
sI3853
((F9817.1000000436379
F2908.3000000075895
tp179
(F9817.1000000436379
F2997.2000000035841
tp180
tp181
sI3854
((F8661.399999993555
F2705.1000000099666
tp182
(F8762.9999999965385
F2705.1000000099666
tp183
tp184
sI3855
((F13665.200000027926
F6604.0000000145264
tp185
(F13665.200000027926
F4686.3000000187922
tp186
tp187
sI3856
((F9817.1000000436379
F2997.2000000035841
tp188
(F11087.100000042228
F2997.2000000035841
tp189
tp190
sI3857
((F13665.200000027926
F4686.3000000187922
tp191
(F13766.800000032084
F4686.3000000187922
tp192
tp193
sI3858
((F8762.9999999965385
F2527.3000000123984
tp194
(F8458.1999999952386
F2527.3000000123984
tp195
tp196
sI3859
((F13576.300000043517
F3721.1000000082004
tp197
(F13665.200000043898
F3721.1000000082004
tp198
tp199
sI3860
((F8458.1999999952386
F2527.3000000123984
tp200
(F8458.1999999952386
F1384.3000000094376
tp201
tp202
sI3861
((F8458.1999999952386
F1384.3000000094376
tp203
(F8356.5999999922533
F1384.3000000094376
tp204
tp205
sI3862
((F13030.200000044304
F3098.8000000000548
tp206
(F13030.200000044304
F3721.1000000082004
tp207
tp208
sI3863
((F9817.1000000436379
F3721.1000000133436
tp209
(F9817.1000000436379
F3098.7999999979725
tp210
tp211
sI3864
((F13030.200000044304
F3721.1000000082004
tp212
(F13119.100000039209
F3721.1000000082004
tp213
tp214
sI3865
((F13119.100000039209
F3721.1000000082004
tp215
(F13119.100000039209
F3822.7000000055068
tp216
tp217
sI3866
((F9817.1000000436379
F3098.7999999979725
tp218
(F10782.300000044594
F3098.7999999979725
tp219
tp220
sI3867
((F13119.100000039209
F3822.7000000055068
tp221
(F12928.600000041521
F3822.7000000055068
tp222
tp223
sI3868
((F10782.300000044594
F3098.7999999979725
tp224
(F10782.300000044594
F3721.1000000133436
tp225
tp226
sI3869
((F12928.600000041521
F3822.7000000055068
tp227
(F12928.600000041521
F3098.8000000000548
tp228
tp229
sI3870
((F13665.200000040604
F3822.7000000054677
tp230
(F13665.200000041827
F3911.6000000109616
tp231
tp232
sI3871
((F7416.7999999930498
F685.80000000880364
tp233
(F8458.1999999983454
F685.80000001475355
tp234
tp235
sI3872
((F13030.200000044006
F3098.7999999972199
tp236
(F13665.200000041827
F3098.7999999979725
tp237
tp238
sI3873
((F13576.300000043517
F3822.7000000055068
tp239
(F13576.300000043517
F3721.1000000082004
tp240
tp241
sI3874
((F8661.3999999964708
F2705.1000000082322
tp242
(F8661.3999999964708
F2628.9000000122323
tp243
tp244
sI3875
((F13665.200000037519
F3911.6000000085919
tp245
(F13766.800000044746
F3911.6000000085919
tp246
tp247
sI3876
((F13766.800000044746
F3911.6000000085919
tp248
(F13766.800000044746
F2997.2000000005883
tp249
tp250
sI3877
((F8356.5999999948581
F2628.9000000122323
tp251
(F8356.5999999948581
F1384.3000000100487
tp252
tp253
sI3878
((F11188.700000048164
F2997.2000000005883
tp254
(F13766.800000044746
F2997.2000000005883
tp255
tp256
sI3879
((F9817.1000000402746
F1358.900000004202
tp257
(F11087.100000039944
F1358.900000004202
tp258
tp259
sI3880
((F8661.3999999964708
F2628.9000000122323
tp260
(F8356.5999999948581
F2628.9000000122323
tp261
tp262
sI3881
((F9817.100000045144
F3721.1000000089234
tp263
(F9994.9000000442975
F3721.1000000089234
tp264
tp265
sI3882
((F9994.9000000442975
F3721.1000000089234
tp266
(F9994.9000000442975
F3822.7000000067173
tp267
tp268
sI3883
((F10604.500000047135
F3822.7000000067173
tp269
(F10604.500000047135
F3721.1000000089234
tp270
tp271
sI3884
((F11087.100000039944
F1358.900000004202
tp272
(F11087.100000039944
F723.90000001089902
tp273
tp274
sI3885
((F10604.500000047135
F3721.1000000089234
tp275
(F10782.300000046289
F3721.1000000089234
tp276
tp277
sI3886
((F10604.500000047135
F3822.7000000067173
tp278
(F10883.900000046217
F3822.7000000077323
tp279
tp280
sI3887
((F11188.700000039247
F2997.2000000007711
tp281
(F11188.700000039247
F622.30000000531709
tp282
tp283
sI3888
((F13665.200000043898
F3822.7000000055068
tp284
(F13576.300000043517
F3822.7000000055068
tp285
tp286
sI3889
((F8762.9999999965385
F2705.1000000099666
tp287
(F8762.9999999965385
F2527.3000000123984
tp288
tp289
sI3890
((F11087.100000039087
F-507.99999997310078
tp290
(F7416.7999999929434
F-507.999999993448
tp291
tp292
sI3891
((F11188.700000039371
F-355.59999999723641
tp293
(F11087.100000039087
F-355.59999999723641
tp294
tp295
sI3892
((F11087.100000039087
F-355.59999999723641
tp296
(F11087.100000039087
F-507.99999997310078
tp297
tp298
sI3893
((F9715.5000000403015
F2247.9000000170327
tp299
(F9817.1000000402746
F2247.9000000170327
tp300
tp301
sI3894
((F9817.1000000402746
F2247.9000000170327
tp302
(F9817.1000000402746
F1460.5000000041755
tp303
tp304
sI3895
((F9817.1000000402746
F1460.5000000041755
tp305
(F11087.100000039944
F1460.5000000041755
tp306
tp307
sI3896
((F11087.100000039944
F1460.5000000041755
tp308
(F11087.100000039944
F2997.2000000037742
tp309
tp310
sI3897
((F9817.1000000402746
F723.90000001089902
tp311
(F9817.1000000402746
F1358.900000004202
tp312
tp313
sI3898
((F7416.7999999929434
F101.60000000212631
tp314
(F7416.7999999929434
F-507.999999993448
tp315
tp316
sI3899
((F8458.1999999983454
F914.40000001054659
tp317
(F7416.7999999930498
F914.40000000459622
tp318
tp319
sI3900
((F10947.400000037082
F622.30000001062103
tp320
(F11188.700000037083
F622.300000010247
tp321
tp322
sI3901
((F7416.7999999930498
F1143.0000000063392
tp323
(F8458.1999999983454
F1143.0000000122893
tp324
tp325
sI3902
((F7416.7999999885142
F2705.1000000080448
tp326
(F7416.7999999933163
F101.60000000294986
tp327
tp328
sI3903
((F7416.7999999930498
F1371.6000000080821
tp329
(F8237.8203984918491
F1371.6000000140323
tp330
tp331
sI3904
((F9817.1000000390577
F723.90000000890541
tp332
(F9956.8000000442262
F723.90000000890541
tp333
tp334
sI3905
((F11087.10000004225
F723.90000000890541
tp335
(F10947.400000037082
F723.90000000890541
tp336
tp337
sI3906
((F10947.400000037082
F723.90000000890541
tp338
(F10947.400000037082
F622.30000001062103
tp339
tp340
sI3907
((F9715.5000000434484
F2247.9000000153592
tp341
(F9715.5000000434484
F622.30000001632379
tp342
tp343
sI3908
((F9956.8000000442262
F622.30000001062103
tp344
(F9715.50000004295
F622.300000010247
tp345
tp346
sI3909
((F9715.5000000434484
F2908.3000000027514
tp347
(F9715.5000000434484
F3822.70000000443
tp348
tp349
sI3910
((F7416.7999999900603
F1600.2000000051512
tp350
(F7950.1480273618972
F1600.2000000150483
tp351
tp352
sI3911
((F7416.7999999900603
F1828.8000000043962
tp353
(F7653.2271773025486
F1828.8000000043962
tp354
tp355
sI3912
((F7416.7999999885142
F3543.3000000112766
tp356
(F7416.7999999899657
F3619.5000000101927
tp357
tp358
sI3913
((F7315.199999998119
F3543.3000000112766
tp359
(F7416.7999999885142
F3543.3000000112766
tp360
tp361
sI3914
((F7315.199999998119
F2705.1000000080448
tp362
(F7416.7999999885142
F2705.1000000080448
tp363
tp364
sI3915
((F8610.5999999958713
F3619.5000000089931
tp365
(F8610.5999999958713
F2628.9000000094816
tp366
tp367
sI3916
((F8381.999999994965
F2628.9000000094816
tp368
(F8381.999999994965
F3619.5000000089931
tp369
tp370
sI3917
((F7365.999999995257
F3543.3000000190377
tp371
(F7958.6969039934156
F2950.6030960208791
tp372
tp373
sI3918
((F7416.7999999897829
F2603.5000000114906
tp374
(F8356.5999999905853
F2603.5000000114906
tp375
tp376
sI3919
((F7315.1999999994368
F3543.300000005589
tp377
(F7315.1999999994368
F6705.600000008898
tp378
tp379
sI3920
((F7315.1999999994368
F2705.1000000114636
tp380
(F7315.1999999994368
F-609.59999998958938
tp381
tp382
sI3921
((F7315.1999999994368
F-609.59999998958938
tp383
(F11188.699999996572
F-609.59999998958938
tp384
tp385
sI3922
((F7315.1999999994368
F6712.8800846485283
tp386
(F13766.799999999812
F6712.8800846485283
tp387
tp388
sI3923
((F13766.799999999812
F6712.8800846485283
tp389
(F13766.799999999812
F4686.3000000213642
tp390
tp391
sI3924
((F7416.799999995048
F3721.1000000117228
tp392
(F8762.9999999888169
F3721.1000000117228
tp393
tp394
sI3925
((F7416.7999999899657
F3721.1000000120334
tp395
(F7416.7999999933163
F6604.0000000105283
tp396
tp397
sI3926
((F7416.7999999917829
F3619.5000000104255
tp398
(F8661.3999999947846
F3619.5000000104255
tp399
tp400
sI3927
((F7416.7999999944896
F457.20000001020389
tp401
(F8407.3999999996686
F457.20000001409966
tp402
tp403
sI3928
((F8458.1999999955951
F1384.3000000110387
tp404
(F8458.1999999994659
F508.00000001432403
tp405
tp406
sI3929
((F7416.7999999917574
F6604.0000000169875
tp407
(F13665.200000032721
F6604.0000000169875
tp408
tp409
sI3930
((F9956.8000000442262
F723.90000000890541
tp410
(F9956.8000000442262
F622.30000001062103
tp411
tp412
sI3931
((F13665.200000040604
F3721.1000000077374
tp413
(F13665.200000041827
F3098.7999999979725
tp414
tp415
sI3932
((F12928.600000041202
F3098.7999999972199
tp416
(F10883.900000046217
F3098.7999999979725
tp417
tp418
sI3933
((F10883.900000046217
F3098.7999999979725
tp419
(F10883.900000046217
F3822.7000000077323
tp420
tp421
sI3934
((F9994.9000000442975
F3822.7000000067173
tp422
(F9715.500000042015
F3822.7000000077323
tp423
tp424
sI3935
((F8762.9999999965385
F3721.1000000091958
tp425
(F8762.9999999965385
F3543.3000000116272
tp426
tp427
sI3936
((F8762.9999999965385
F3543.3000000116272
tp428
(F8661.399999993555
F3543.3000000116272
tp429
tp430
sI3937
((F8661.399999993555
F3543.3000000116272
tp431
(F8661.399999993555
F3619.5000000138666
tp432
tp433
sI3938
((F9715.500000042015
F2908.3000000075895
tp434
(F9817.1000000436379
F2908.3000000075895
tp435
tp436
sI3939
((F9817.1000000436379
F2908.3000000075895
tp437
(F9817.1000000436379
F2997.2000000035841
tp438
tp439
sI3940
((F8661.399999993555
F2705.1000000099666
tp440
(F8762.9999999965385
F2705.1000000099666
tp441
tp442
sI3941
((F13665.200000027926
F6604.0000000145264
tp443
(F13665.200000027926
F4686.3000000187922
tp444
tp445
sI3942
((F9817.1000000436379
F2997.2000000035841
tp446
(F11087.100000042228
F2997.2000000035841
tp447
tp448
sI3943
((F13665.200000027926
F4686.3000000187922
tp449
(F13766.800000032084
F4686.3000000187922
tp450
tp451
sI3944
((F8762.9999999965385
F2527.3000000123984
tp452
(F8458.1999999952386
F2527.3000000123984
tp453
tp454
sI3945
((F13576.300000043517
F3721.1000000082004
tp455
(F13665.200000043898
F3721.1000000082004
tp456
tp457
sI3946
((F8458.1999999952386
F2527.3000000123984
tp458
(F8458.1999999952386
F1384.3000000094376
tp459
tp460
sI3947
((F8458.1999999952386
F1384.3000000094376
tp461
(F8356.5999999922533
F1384.3000000094376
tp462
tp463
sI3948
((F13030.200000044304
F3098.8000000000548
tp464
(F13030.200000044304
F3721.1000000082004
tp465
tp466
sI3949
((F9817.1000000436379
F3721.1000000133436
tp467
(F9817.1000000436379
F3098.7999999979725
tp468
tp469
sI3950
((F13030.200000044304
F3721.1000000082004
tp470
(F13119.100000039209
F3721.1000000082004
tp471
tp472
sI3951
((F13119.100000039209
F3721.1000000082004
tp473
(F13119.100000039209
F3822.7000000055068
tp474
tp475
sI3952
((F9817.1000000436379
F3098.7999999979725
tp476
(F10782.300000044594
F3098.7999999979725
tp477
tp478
sI3953
((F13119.100000039209
F3822.7000000055068
tp479
(F12928.600000041521
F3822.7000000055068
tp480
tp481
sI3954
((F10782.300000044594
F3098.7999999979725
tp482
(F10782.300000044594
F3721.1000000133436
tp483
tp484
sI3955
((F12928.600000041521
F3822.7000000055068
tp485
(F12928.600000041521
F3098.8000000000548
tp486
tp487
sI3956
((F13665.200000040604
F3822.7000000054677
tp488
(F13665.200000041827
F3911.6000000109616
tp489
tp490
sI3957
((F7416.7999999930498
F685.80000000880364
tp491
(F8458.1999999983454
F685.80000001475355
tp492
tp493
sI3958
((F13030.200000044006
F3098.7999999972199
tp494
(F13665.200000041827
F3098.7999999979725
tp495
tp496
sI3959
((F13576.300000043517
F3822.7000000055068
tp497
(F13576.300000043517
F3721.1000000082004
tp498
tp499
sI3960
((F8661.3999999964708
F2705.1000000082322
tp500
(F8661.3999999964708
F2628.9000000122323
tp501
tp502
sI3961
((F13665.200000037519
F3911.6000000085919
tp503
(F13766.800000044746
F3911.6000000085919
tp504
tp505
sI3962
((F13766.800000044746
F3911.6000000085919
tp506
(F13766.800000044746
F2997.2000000005883
tp507
tp508
sI3963
((F8356.5999999948581
F2628.9000000122323
tp509
(F8356.5999999948581
F1384.3000000100487
tp510
tp511
sI3964
((F11188.700000048164
F2997.2000000005883
tp512
(F13766.800000044746
F2997.2000000005883
tp513
tp514
sI3965
((F9817.1000000402746
F1358.900000004202
tp515
(F11087.100000039944
F1358.900000004202
tp516
tp517
sI3966
((F8661.3999999964708
F2628.9000000122323
tp518
(F8356.5999999948581
F2628.9000000122323
tp519
tp520
sI3967
((F9817.100000045144
F3721.1000000089234
tp521
(F9994.9000000442975
F3721.1000000089234
tp522
tp523
sI3968
((F9994.9000000442975
F3721.1000000089234
tp524
(F9994.9000000442975
F3822.7000000067173
tp525
tp526
sI3969
((F10604.500000047135
F3822.7000000067173
tp527
(F10604.500000047135
F3721.1000000089234
tp528
tp529
sI3970
((F11087.100000039944
F1358.900000004202
tp530
(F11087.100000039944
F723.90000001089902
tp531
tp532
sI3971
((F10604.500000047135
F3721.1000000089234
tp533
(F10782.300000046289
F3721.1000000089234
tp534
tp535
sI3972
((F10604.500000047135
F3822.7000000067173
tp536
(F10883.900000046217
F3822.7000000077323
tp537
tp538
sI3973
((F11188.700000039247
F2997.2000000007711
tp539
(F11188.700000039247
F622.30000000531709
tp540
tp541
sI3974
((F13665.200000043898
F3822.7000000055068
tp542
(F13576.300000043517
F3822.7000000055068
tp543
tp544
sI3975
((F8762.9999999965385
F2705.1000000099666
tp545
(F8762.9999999965385
F2527.3000000123984
tp546
tp547
sI3976
((F11087.100000039087
F-507.99999997310078
tp548
(F7416.7999999929434
F-507.999999993448
tp549
tp550
sI3977
((F11188.700000039371
F-355.59999999723641
tp551
(F11087.100000039087
F-355.59999999723641
tp552
tp553
sI3978
((F11087.100000039087
F-355.59999999723641
tp554
(F11087.100000039087
F-507.99999997310078
tp555
tp556
sI3979
((F9715.5000000403015
F2247.9000000170327
tp557
(F9817.1000000402746
F2247.9000000170327
tp558
tp559
sI3980
((F9817.1000000402746
F2247.9000000170327
tp560
(F9817.1000000402746
F1460.5000000041755
tp561
tp562
sI3981
((F9817.1000000402746
F1460.5000000041755
tp563
(F11087.100000039944
F1460.5000000041755
tp564
tp565
sI3982
((F11087.100000039944
F1460.5000000041755
tp566
(F11087.100000039944
F2997.2000000037742
tp567
tp568
sI3983
((F9817.1000000402746
F723.90000001089902
tp569
(F9817.1000000402746
F1358.900000004202
tp570
tp571
sI3984
((F7416.7999999929434
F101.60000000212631
tp572
(F7416.7999999929434
F-507.999999993448
tp573
tp574
sI3985
((F8458.1999999983454
F914.40000001054659
tp575
(F7416.7999999930498
F914.40000000459622
tp576
tp577
sI3986
((F10947.400000037082
F622.30000001062103
tp578
(F11188.700000037083
F622.300000010247
tp579
tp580
sI3987
((F7416.7999999930498
F1143.0000000063392
tp581
(F8458.1999999983454
F1143.0000000122893
tp582
tp583
sI3988
((F7416.7999999885142
F2705.1000000080448
tp584
(F7416.7999999933163
F101.60000000294986
tp585
tp586
sI3989
((F7416.7999999930498
F1371.6000000080821
tp587
(F8237.8203984918491
F1371.6000000140323
tp588
tp589
sI3990
((F9817.1000000390577
F723.90000000890541
tp590
(F9956.8000000442262
F723.90000000890541
tp591
tp592
sI3991
((F11087.10000004225
F723.90000000890541
tp593
(F10947.400000037082
F723.90000000890541
tp594
tp595
sI3992
((F10947.400000037082
F723.90000000890541
tp596
(F10947.400000037082
F622.30000001062103
tp597
tp598
sI3993
((F9715.5000000434484
F2247.9000000153592
tp599
(F9715.5000000434484
F622.30000001632379
tp600
tp601
sI3994
((F9956.8000000442262
F622.30000001062103
tp602
(F9715.50000004295
F622.300000010247
tp603
tp604
sI3995
((F9715.5000000434484
F2908.3000000027514
tp605
(F9715.5000000434484
F3822.70000000443
tp606
tp607
sI3996
((F7416.7999999900603
F1600.2000000051512
tp608
(F7950.1480273618972
F1600.2000000150483
tp609
tp610
sI3997
((F7416.7999999900603
F1828.8000000043962
tp611
(F7653.2271773025486
F1828.8000000043962
tp612
tp613
sI3998
((F7416.7999999885142
F3543.3000000112766
tp614
(F7416.7999999899657
F3619.5000000101927
tp615
tp616
sI3999
((F7315.199999998119
F3543.3000000112766
tp617
(F7416.7999999885142
F3543.3000000112766
tp618
tp619
sI4000
((F7315.199999998119
F2705.1000000080448
tp620
(F7416.7999999885142
F2705.1000000080448
tp621
tp622
sI4001
((F8610.5999999958713
F3619.5000000089931
tp623
(F8610.5999999958713
F2628.9000000094816
tp624
tp625
sI4002
((F8381.999999994965
F2628.9000000094816
tp626
(F8381.999999994965
F3619.5000000089931
tp627
tp628
sI4003
((F7365.999999995257
F3543.3000000190377
tp629
(F7958.6969039934156
F2950.6030960208791
tp630
tp631
sI4004
((F7416.7999999897829
F2603.5000000114906
tp632
(F8356.5999999905853
F2603.5000000114906
tp633
tp634
sI4005
((F7315.1999999994368
F3543.300000005589
tp635
(F7315.1999999994368
F6705.600000008898
tp636
tp637
sI4006
((F7315.1999999994368
F2705.1000000114636
tp638
(F7315.1999999994368
F-609.59999998958938
tp639
tp640
sI4007
((F7315.1999999994368
F-609.59999998958938
tp641
(F11188.699999996572
F-609.59999998958938
tp642
tp643
sI4008
((F7315.1999999994368
F6712.8800846485283
tp644
(F13766.799999999812
F6712.8800846485283
tp645
tp646
sI4009
((F13766.799999999812
F6712.8800846485283
tp647
(F13766.799999999812
F4686.3000000213642
tp648
tp649
sI4010
((F12954.00000002934
F6705.5999999985797
tp650
(F14681.200000028351
F6705.5999999985797
tp651
tp652
sI4011
((F14681.200000030534
F6705.5999999993564
tp653
(F14681.200000030534
F6604.0000000130312
tp654
tp655
sI4012
((F7416.799999995048
F3721.1000000117228
tp656
(F8762.9999999888169
F3721.1000000117228
tp657
tp658
sI4013
((F7416.7999999899657
F3721.1000000120334
tp659
(F7416.7999999933163
F6604.0000000105283
tp660
tp661
sI4014
((F13766.800000030231
F6604.0000000130312
tp662
(F14681.200000030534
F6604.0000000130312
tp663
tp664
sI4015
((F7416.7999999917829
F3619.5000000104255
tp665
(F8661.3999999947846
F3619.5000000104255
tp666
tp667
sI4016
((F7416.7999999944896
F457.20000001020389
tp668
(F8407.3999999996686
F457.20000001409966
tp669
tp670
sI4017
((F8458.1999999955951
F1384.3000000110387
tp671
(F8458.1999999994659
F508.00000001432403
tp672
tp673
sI4018
((F7416.7999999917574
F6604.0000000169875
tp674
(F13665.200000032721
F6604.0000000169875
tp675
tp676
sI4019
((F9956.8000000442262
F723.90000000890541
tp677
(F9956.8000000442262
F622.30000001062103
tp678
tp679
sI4020
((F13665.200000040604
F3721.1000000077374
tp680
(F13665.200000041827
F3098.7999999979725
tp681
tp682
sI4021
((F7315.1999999992604
F6604.0000000169812
tp683
(F101.59999997423688
F6604.0000000169812
tp684
tp685
sI4022
((F12928.600000041202
F3098.7999999972199
tp686
(F10883.900000046217
F3098.7999999979725
tp687
tp688
sI4023
((F10883.900000046217
F3098.7999999979725
tp689
(F10883.900000046217
F3822.7000000077323
tp690
tp691
sI4024
((F9994.9000000442975
F3822.7000000067173
tp692
(F9715.500000042015
F3822.7000000077323
tp693
tp694
sI4025
((F8762.9999999965385
F3721.1000000091958
tp695
(F8762.9999999965385
F3543.3000000116272
tp696
tp697
sI4026
((F8762.9999999965385
F3543.3000000116272
tp698
(F8661.399999993555
F3543.3000000116272
tp699
tp700
sI4027
((F8661.399999993555
F3543.3000000116272
tp701
(F8661.399999993555
F3619.5000000138666
tp702
tp703
sI4028
((F9715.500000042015
F2908.3000000075895
tp704
(F9817.1000000436379
F2908.3000000075895
tp705
tp706
sI4029
((F9817.1000000436379
F2908.3000000075895
tp707
(F9817.1000000436379
F2997.2000000035841
tp708
tp709
sI4030
((F8661.399999993555
F2705.1000000099666
tp710
(F8762.9999999965385
F2705.1000000099666
tp711
tp712
sI4031
((F13665.200000027926
F6604.0000000145264
tp713
(F13665.200000027926
F4686.3000000187922
tp714
tp715
sI4032
((F9817.1000000436379
F2997.2000000035841
tp716
(F11087.100000042228
F2997.2000000035841
tp717
tp718
sI4033
((F13665.200000027926
F4686.3000000187922
tp719
(F13766.800000032084
F4686.3000000187922
tp720
tp721
sI4034
((F8762.9999999965385
F2527.3000000123984
tp722
(F8458.1999999952386
F2527.3000000123984
tp723
tp724
sI4035
((F13576.300000043517
F3721.1000000082004
tp725
(F13665.200000043898
F3721.1000000082004
tp726
tp727
sI4036
((F13766.800000032084
F4686.3000000187922
tp728
(F13766.800000032084
F6604.0000000145264
tp729
tp730
sI4037
((F8458.1999999952386
F2527.3000000123984
tp731
(F8458.1999999952386
F1384.3000000094376
tp732
tp733
sI4038
((F8458.1999999952386
F1384.3000000094376
tp734
(F8356.5999999922533
F1384.3000000094376
tp735
tp736
sI4039
((F13030.200000044304
F3098.8000000000548
tp737
(F13030.200000044304
F3721.1000000082004
tp738
tp739
sI4040
((F9817.1000000436379
F3721.1000000133436
tp740
(F9817.1000000436379
F3098.7999999979725
tp741
tp742
sI4041
((F13030.200000044304
F3721.1000000082004
tp743
(F13119.100000039209
F3721.1000000082004
tp744
tp745
sI4042
((F13119.100000039209
F3721.1000000082004
tp746
(F13119.100000039209
F3822.7000000055068
tp747
tp748
sI4043
((F9817.1000000436379
F3098.7999999979725
tp749
(F10782.300000044594
F3098.7999999979725
tp750
tp751
sI4044
((F13119.100000039209
F3822.7000000055068
tp752
(F12928.600000041521
F3822.7000000055068
tp753
tp754
sI4045
((F10782.300000044594
F3098.7999999979725
tp755
(F10782.300000044594
F3721.1000000133436
tp756
tp757
sI4046
((F12928.600000041521
F3822.7000000055068
tp758
(F12928.600000041521
F3098.8000000000548
tp759
tp760
sI4047
((F13665.200000040604
F3822.7000000054677
tp761
(F13665.200000041827
F3911.6000000109616
tp762
tp763
sI4048
((F7416.7999999930498
F685.80000000880364
tp764
(F8458.1999999983454
F685.80000001475355
tp765
tp766
sI4049
((F13030.200000044006
F3098.7999999972199
tp767
(F13665.200000041827
F3098.7999999979725
tp768
tp769
sI4050
((F13576.300000043517
F3822.7000000055068
tp770
(F13576.300000043517
F3721.1000000082004
tp771
tp772
sI4051
((F8661.3999999964708
F2705.1000000082322
tp773
(F8661.3999999964708
F2628.9000000122323
tp774
tp775
sI4052
((F13665.200000037519
F3911.6000000085919
tp776
(F13766.800000044746
F3911.6000000085919
tp777
tp778
sI4053
((F13766.800000044746
F3911.6000000085919
tp779
(F13766.800000044746
F2997.2000000005883
tp780
tp781
sI4054
((F8356.5999999948581
F2628.9000000122323
tp782
(F8356.5999999948581
F1384.3000000100487
tp783
tp784
sI4055
((F11188.700000048164
F2997.2000000005883
tp785
(F13766.800000044746
F2997.2000000005883
tp786
tp787
sI4056
((F9817.1000000402746
F1358.900000004202
tp788
(F11087.100000039944
F1358.900000004202
tp789
tp790
sI4057
((F8661.3999999964708
F2628.9000000122323
tp791
(F8356.5999999948581
F2628.9000000122323
tp792
tp793
sI4058
((F9817.100000045144
F3721.1000000089234
tp794
(F9994.9000000442975
F3721.1000000089234
tp795
tp796
sI4059
((F9994.9000000442975
F3721.1000000089234
tp797
(F9994.9000000442975
F3822.7000000067173
tp798
tp799
sI4060
((F10604.500000047135
F3822.7000000067173
tp800
(F10604.500000047135
F3721.1000000089234
tp801
tp802
sI4061
((F11087.100000039944
F1358.900000004202
tp803
(F11087.100000039944
F723.90000001089902
tp804
tp805
sI4062
((F10604.500000047135
F3721.1000000089234
tp806
(F10782.300000046289
F3721.1000000089234
tp807
tp808
sI4063
((F10604.500000047135
F3822.7000000067173
tp809
(F10883.900000046217
F3822.7000000077323
tp810
tp811
sI4064
((F11188.700000039247
F2997.2000000007711
tp812
(F11188.700000039247
F622.30000000531709
tp813
tp814
sI4065
((F11188.700000039247
F-355.59999999366755
tp815
(F11188.700000039247
F-507.9999999729207
tp816
tp817
sI4066
((F13665.200000043898
F3822.7000000055068
tp818
(F13576.300000043517
F3822.7000000055068
tp819
tp820
sI4067
((F12954.000000030148
F6705.5999999993273
tp821
(F12954.000000030148
F13868.400000000123
tp822
tp823
sI4068
((F8762.9999999965385
F2705.1000000099666
tp824
(F8762.9999999965385
F2527.3000000123984
tp825
tp826
sI4069
((F11087.100000039087
F-507.99999997310078
tp827
(F7416.7999999929434
F-507.999999993448
tp828
tp829
sI4070
((F11188.700000039371
F-355.59999999723641
tp830
(F11087.100000039087
F-355.59999999723641
tp831
tp832
sI4071
((F11087.100000039087
F-355.59999999723641
tp833
(F11087.100000039087
F-507.99999997310078
tp834
tp835
sI4072
((F9715.5000000403015
F2247.9000000170327
tp836
(F9817.1000000402746
F2247.9000000170327
tp837
tp838
sI4073
((F9817.1000000402746
F2247.9000000170327
tp839
(F9817.1000000402746
F1460.5000000041755
tp840
tp841
sI4074
((F9817.1000000402746
F1460.5000000041755
tp842
(F11087.100000039944
F1460.5000000041755
tp843
tp844
sI4075
((F11087.100000039944
F1460.5000000041755
tp845
(F11087.100000039944
F2997.2000000037742
tp846
tp847
sI4076
((F9817.1000000402746
F723.90000001089902
tp848
(F9817.1000000402746
F1358.900000004202
tp849
tp850
sI4077
((F3.6025085137225688e-09
F4.5220076572149992e-09
tp851
(F7315.1999999952277
F4.5220076572149992e-09
tp852
tp853
sI4078
((F1.3816134014632553e-08
F6705.6000000124277
tp854
(F12801.600000024589
F6705.6000000124277
tp855
tp856
sI4079
((F7315.1999999952277
F-609.5999999923788
tp857
(F17678.400000000169
F-609.5999999923788
tp858
tp859
sI4080
((F17678.400000000169
F-609.5999999923788
tp860
(F17678.400000000169
F6705.5999999992473
tp861
tp862
sI4081
((F12801.600000024589
F6705.6000000124277
tp863
(F12801.600000024589
F14020.800000000319
tp864
tp865
sI4082
((F12801.600000024589
F14020.800000000319
tp866
(F17678.400000010704
F14020.800000000319
tp867
tp868
sI4083
((F17678.400000010704
F14020.800000000319
tp869
(F17678.400000010704
F6705.6000000124277
tp870
tp871
sI4084
((F7315.1999999952277
F4.5220076572149992e-09
tp872
(F7315.1999999952277
F-609.5999999923788
tp873
tp874
sI4085
((F17576.800000014347
F-507.99999999344664
tp875
(F17576.800000014351
F6604.0000000128484
tp876
tp877
sI4086
((F11188.700000039371
F-507.99999997310078
tp878
(F17576.800000014347
F-507.99999999344664
tp879
tp880
sI4087
((F101.60000000881155
F6604.0000000128421
tp881
(F101.60000000881018
F101.60000000212221
tp882
tp883
sI4088
((F7416.7999999929434
F101.60000000212631
tp884
(F7416.7999999929434
F-507.999999993448
tp885
tp886
sI4089
((F7315.199999998119
F3543.3000000112766
tp887
(F7315.199999995818
F6604.0000000105256
tp888
tp889
sI4090
((F8458.1999999983454
F914.40000001054659
tp890
(F7416.7999999930498
F914.40000000459622
tp891
tp892
sI4091
((F10947.400000037082
F622.30000001062103
tp893
(F11188.700000037083
F622.300000010247
tp894
tp895
sI4092
((F7416.7999999930498
F1143.0000000063392
tp896
(F8458.1999999983454
F1143.0000000122893
tp897
tp898
sI4093
((F12954.000000030148
F13868.400000000123
tp899
(F17526.000000012787
F13868.400000000123
tp900
tp901
sI4094
((F17526.000000013857
F6705.6000000001322
tp902
(F16586.200000015666
F6705.6000000001322
tp903
tp904
sI4095
((F16586.200000015666
F6705.6000000001322
tp905
(F16586.200000015666
F6604.0000000010641
tp906
tp907
ss.