(dp0
S'units'
p1
S'inches'
p2
sS'dl'
p3
(dp4
sS'gc'
p5
(dp6
sS'tx'
p7
(dp8
I3864
(F11304.063527459946
F3496.4579201383999
S'Fridge'
p9
tp10
sI2949
(F13338.020526847187
F3425.2412036216028
S'pantry'
p11
tp12
sI3153
(F12253.618129174274
F6246.5157802498643
S'Sink'
p13
tp14
sI2664
(F12014.640259366955
F4901.3204783562915
S'Kitchen'
p15
tp16
sI2812
(F13324.355627900608
F5318.3203726809697
S'Stove'
p17
tp18
sI2988
(F10275.209015090697
F3414.3801698919697
S'Closet'
p19
tp20
ssS'ga'
p21
(dp22
I3081
((F12547.600000028173
F6521.45000001472
tp23
F38.100000000000364
F0.0
F90.000000000002728
tp24
sI3082
((F11988.800000027395
F6521.4500000147254
tp25
F38.100000000000364
F90.000000000002728
F180.0
tp26
sI3083
((F11988.800000027426
F6038.8500000150534
tp27
F38.099999999998545
F180.0
F-90.0
tp28
sI3084
((F12547.600000028175
F6038.8500000150671
tp29
F38.100000000000364
F-90.0
F0.0
tp30
sI3189
((F12477.750000027938
F6394.4500000153057
tp31
F63.5
F0.0
F90.0
tp32
sI3190
((F12477.750000027905
F6115.0500000146621
tp33
F63.5
F-90.0
F8.2063319529288595e-13
tp34
sI3191
((F12058.650000027772
F6115.0500000146694
tp35
F63.5
F180.0
F-90.0
tp36
sI3192
((F12058.650000027759
F6394.4500000153121
tp37
F63.500000000000909
F90.0
F-179.99999999999756
tp38
sI2713
((F10566.400000027194
F4838.7000000133821
tp39
F25.400000000001455
F180.0
F-90.0
tp40
sI2714
((F11176.000000026099
F4838.7000000133849
tp41
F25.399999999999636
F-90.0
F0.0
tp42
sI2715
((F11226.8000000261
F5943.6000000141757
tp43
F25.400000000000546
F90.0
F180.0
tp44
sI2716
((F13004.800000032228
F5943.6000000141739
tp45
F25.399999999999636
F0.0
F90.0
tp46
sI2717
((F13055.600000033124
F4718.0500000134816
tp47
F25.399999999999636
F180.0
F-90.0
tp48
sI2334
((F7365.999999995257
F3543.3000000190377
tp49
F838.20000001099288
F-90.0
F-45.0
tp50
sI2335
((F8407.4000000005581
F508.00000001368653
tp51
F50.800000000511545
F-90.0
F0.0
tp52
ssS'cl'
p53
(lp54
sS'cc'
p55
(dp56
sS'gl'
p57
(dp58
I2304
((F9817.1000000402746
F1460.5000000041755
tp59
(F11087.100000039944
F1460.5000000041755
tp60
tp61
sI2305
((F11087.100000039944
F1460.5000000041755
tp62
(F11087.100000039944
F2997.2000000037742
tp63
tp64
sI2306
((F9817.1000000402746
F723.90000001089902
tp65
(F9817.1000000402746
F1358.900000004202
tp66
tp67
sI2307
((F7416.7999999929434
F101.60000000212631
tp68
(F7416.7999999929434
F-507.999999993448
tp69
tp70
sI2308
((F8458.1999999983454
F914.40000001054659
tp71
(F7416.7999999930498
F914.40000000459622
tp72
tp73
sI2309
((F10947.400000037082
F622.30000001062103
tp74
(F11188.700000037083
F622.300000010247
tp75
tp76
sI2310
((F7416.7999999930498
F1143.0000000063392
tp77
(F8458.1999999983454
F1143.0000000122893
tp78
tp79
sI2311
((F7416.7999999885142
F2705.1000000080448
tp80
(F7416.7999999933163
F101.60000000294986
tp81
tp82
sI2312
((F7416.7999999930498
F1371.6000000080821
tp83
(F8237.8203984918491
F1371.6000000140323
tp84
tp85
sI2313
((F9817.1000000390577
F723.90000000890541
tp86
(F9956.8000000442262
F723.90000000890541
tp87
tp88
sI2314
((F11087.10000004225
F723.90000000890541
tp89
(F10947.400000037082
F723.90000000890541
tp90
tp91
sI2315
((F10947.400000037082
F723.90000000890541
tp92
(F10947.400000037082
F622.30000001062103
tp93
tp94
sI2316
((F9715.5000000434484
F2247.9000000153592
tp95
(F9715.5000000434484
F622.30000001632379
tp96
tp97
sI2317
((F9956.8000000442262
F622.30000001062103
tp98
(F9715.50000004295
F622.300000010247
tp99
tp100
sI2318
((F9715.5000000434484
F2908.3000000027514
tp101
(F9715.5000000434484
F3822.70000000443
tp102
tp103
sI2319
((F7416.7999999900603
F1600.2000000051512
tp104
(F7950.1480273618972
F1600.2000000150483
tp105
tp106
sI2320
((F7416.7999999900603
F1828.8000000043962
tp107
(F7653.2271773025486
F1828.8000000043962
tp108
tp109
sI2321
((F7416.7999999885142
F3543.3000000112766
tp110
(F7416.7999999899657
F3619.5000000101927
tp111
tp112
sI2322
((F7315.199999998119
F3543.3000000112766
tp113
(F7416.7999999885142
F3543.3000000112766
tp114
tp115
sI2323
((F7315.199999998119
F2705.1000000080448
tp116
(F7416.7999999885142
F2705.1000000080448
tp117
tp118
sI2324
((F8610.5999999958713
F3619.5000000089931
tp119
(F8610.5999999958713
F2628.9000000094816
tp120
tp121
sI2325
((F8381.999999994965
F2628.9000000094816
tp122
(F8381.999999994965
F3619.5000000089931
tp123
tp124
sI2326
((F7365.999999995257
F3543.3000000190377
tp125
(F7958.6969039934156
F2950.6030960208791
tp126
tp127
sI2327
((F7416.7999999897829
F2603.5000000114906
tp128
(F8356.5999999905853
F2603.5000000114906
tp129
tp130
sI2328
((F7315.1999999994368
F3543.300000005589
tp131
(F7315.1999999994368
F6705.600000008898
tp132
tp133
sI2329
((F7315.1999999994368
F2705.1000000114636
tp134
(F7315.1999999994368
F-609.59999998958938
tp135
tp136
sI2330
((F7315.1999999994368
F-609.59999998958938
tp137
(F11188.699999996572
F-609.59999998958938
tp138
tp139
sI2331
((F11188.699999998262
F-355.59999999761976
tp140
(F11188.699999998262
F-609.59999998993862
tp141
tp142
sI2332
((F7315.1999999994368
F6712.8800846485283
tp143
(F13766.799999999812
F6712.8800846485283
tp144
tp145
sI2333
((F13766.799999999812
F6712.8800846485283
tp146
(F13766.799999999812
F4686.3000000213642
tp147
tp148
sI3619
((F11703.050000041776
F3733.7999999976364
tp149
(F11703.050000041776
F3098.7999999994145
tp150
tp151
sI3847
((F10906.125000048633
F3860.7999999976073
tp152
(F11680.825000038179
F3860.7999999976073
tp153
tp154
sI3848
(g153
(F11680.825000038179
F3124.1999999955688
tp155
tp156
sI3379
((F13639.800000028452
F4927.6000000143749
tp157
(F13639.800000028452
F4692.6500000080796
tp158
tp159
sI3849
(g155
(F10906.125000048633
F3124.1999999955688
tp160
tp161
sI3850
(g160
g152
tp162
sI2551
((F13030.200000032239
F5689.6000000133899
tp163
(F13030.200000032228
F5943.6000000141739
tp164
tp165
sI2573
(g163
(F13665.20000002911
F5689.6000000133899
tp166
tp167
sI2533
((F11226.8000000261
F5969.0000000141763
tp168
(F13004.800000032228
F5969.0000000141745
tp169
tp170
sI3072
((F11988.800000027426
F6000.750000015053
tp171
(F12547.600000028175
F6000.7500000150667
tp172
tp173
sI3179
((F12477.750000027938
F6457.9500000153057
tp174
(F12058.650000027759
F6457.950000015313
tp175
tp176
sI3180
((F12541.250000027938
F6394.4500000153057
tp177
(F12541.250000027905
F6115.0500000146631
tp178
tp179
sI2706
((F13665.200000026
F4927.6000000132435
tp180
(F13030.20000003313
F4927.6000000132435
tp181
tp182
sI3182
((F11995.150000027772
F6115.0500000146694
tp183
(F11995.150000027757
F6394.4500000153093
tp184
tp185
sI3706
((F11703.050000041776
F3124.1999999982609
tp186
(F12903.200000041392
F3124.1999999960058
tp187
tp188
sI3776
(g187
(F12903.200000041392
F3733.7999999953818
tp189
tp190
sI2732
((F13665.200000014698
F4927.6000000118929
tp191
(F12979.400000028601
F4927.6000000118929
tp192
tp193
sI3073
((F12585.700000028173
F6521.45000001472
tp194
(F12585.700000028175
F6038.8500000150671
tp195
tp196
sI3350
((F13639.800000028452
F6578.6000000188233
tp197
(F13639.800000028452
F5689.6000000116564
tp198
tp199
sI3297
((F10541.000000025448
F6578.6000000188233
tp200
g197
tp201
sI3181
((F12477.750000027905
F6051.5500000146621
tp202
(F12058.650000027772
F6051.5500000146712
tp203
tp204
sI2704
((F13665.200000026
F4692.6500000134793
tp205
(F13055.600000033124
F4692.650000013482
tp206
tp207
sI2513
((F11201.400000026098
F4838.7000000133849
tp208
(F11201.400000026098
F5943.6000000141757
tp209
tp210
sI2707
(g181
(F13030.200000033125
F4718.0500000134816
tp211
tp212
sI2454
((F10541.00000002719
F6604.0000000045557
tp213
(F10541.000000027192
F4838.7000000133821
tp214
tp215
sI3074
((F12547.600000028171
F6559.5500000147204
tp216
(F11988.800000027393
F6559.5500000147258
tp217
tp218
sI2730
((F12979.400000028601
F5689.6000000105323
tp219
(F13665.200000014698
F5689.6000000105323
tp220
tp221
sI2476
((F10566.400000027194
F4813.3000000133825
tp222
(F11176.000000026099
F4813.3000000133852
tp223
tp224
sI2733
(g192
g219
tp225
sI3571
((F12928.600000053768
F3733.7999999953818
tp226
g149
tp227
sI3075
((F11950.700000027395
F6521.4500000147254
tp228
(F11950.700000027427
F6038.8500000150534
tp229
tp230
sI2247
((F7416.799999995048
F3721.1000000117228
tp231
(F8762.9999999888169
F3721.1000000117228
tp232
tp233
sI2248
((F7416.7999999899657
F3721.1000000120334
tp234
(F7416.7999999933163
F6604.0000000105283
tp235
tp236
sI2249
((F7416.7999999917829
F3619.5000000104255
tp237
(F8661.3999999947846
F3619.5000000104255
tp238
tp239
sI2250
((F7416.7999999944896
F457.20000001020389
tp240
(F8407.3999999996686
F457.20000001409966
tp241
tp242
sI2251
((F8458.1999999955951
F1384.3000000110387
tp243
(F8458.1999999994659
F508.00000001432403
tp244
tp245
sI2252
((F7416.7999999917574
F6604.0000000169875
tp246
(F13665.200000032721
F6604.0000000169875
tp247
tp248
sI2253
((F9956.8000000442262
F723.90000000890541
tp249
(F9956.8000000442262
F622.30000001062103
tp250
tp251
sI2254
((F13665.200000040604
F3721.1000000077374
tp252
(F13665.200000041827
F3098.7999999979725
tp253
tp254
sI2255
((F12928.600000041202
F3098.7999999972199
tp255
(F10883.900000046217
F3098.7999999979725
tp256
tp257
sI2256
((F10883.900000046217
F3098.7999999979725
tp258
(F10883.900000046217
F3822.7000000077323
tp259
tp260
sI2257
((F9994.9000000442975
F3822.7000000067173
tp261
(F9715.500000042015
F3822.7000000077323
tp262
tp263
sI2258
((F8762.9999999965385
F3721.1000000091958
tp264
(F8762.9999999965385
F3543.3000000116272
tp265
tp266
sI2259
((F8762.9999999965385
F3543.3000000116272
tp267
(F8661.399999993555
F3543.3000000116272
tp268
tp269
sI2260
((F8661.399999993555
F3543.3000000116272
tp270
(F8661.399999993555
F3619.5000000138666
tp271
tp272
sI2261
((F9715.500000042015
F2908.3000000075895
tp273
(F9817.1000000436379
F2908.3000000075895
tp274
tp275
sI2262
((F9817.1000000436379
F2908.3000000075895
tp276
(F9817.1000000436379
F2997.2000000035841
tp277
tp278
sI2263
((F8661.399999993555
F2705.1000000099666
tp279
(F8762.9999999965385
F2705.1000000099666
tp280
tp281
sI2264
((F13665.200000027926
F6604.0000000145264
tp282
(F13665.200000027926
F4686.3000000187922
tp283
tp284
sI2265
((F9817.1000000436379
F2997.2000000035841
tp285
(F11087.100000042228
F2997.2000000035841
tp286
tp287
sI2266
((F13665.200000027926
F4686.3000000187922
tp288
(F13766.800000032084
F4686.3000000187922
tp289
tp290
sI2267
((F8762.9999999965385
F2527.3000000123984
tp291
(F8458.1999999952386
F2527.3000000123984
tp292
tp293
sI2268
((F13576.300000043517
F3721.1000000082004
tp294
(F13665.200000043898
F3721.1000000082004
tp295
tp296
sI2269
((F8458.1999999952386
F2527.3000000123984
tp297
(F8458.1999999952386
F1384.3000000094376
tp298
tp299
sI2270
((F8458.1999999952386
F1384.3000000094376
tp300
(F8356.5999999922533
F1384.3000000094376
tp301
tp302
sI2271
((F13030.200000044304
F3098.8000000000548
tp303
(F13030.200000044304
F3721.1000000082004
tp304
tp305
sI2272
((F9817.1000000436379
F3721.1000000133436
tp306
(F9817.1000000436379
F3098.7999999979725
tp307
tp308
sI2273
((F13030.200000044304
F3721.1000000082004
tp309
(F13119.100000039209
F3721.1000000082004
tp310
tp311
sI2274
((F13119.100000039209
F3721.1000000082004
tp312
(F13119.100000039209
F3822.7000000055068
tp313
tp314
sI2275
((F9817.1000000436379
F3098.7999999979725
tp315
(F10782.300000044594
F3098.7999999979725
tp316
tp317
sI2276
((F13119.100000039209
F3822.7000000055068
tp318
(F12928.600000041521
F3822.7000000055068
tp319
tp320
sI2277
((F10782.300000044594
F3098.7999999979725
tp321
(F10782.300000044594
F3721.1000000133436
tp322
tp323
sI2278
((F12928.600000041521
F3822.7000000055068
tp324
(F12928.600000041521
F3098.8000000000548
tp325
tp326
sI2279
((F13665.200000040604
F3822.7000000054677
tp327
(F13665.200000041827
F3911.6000000109616
tp328
tp329
sI2280
((F7416.7999999930498
F685.80000000880364
tp330
(F8458.1999999983454
F685.80000001475355
tp331
tp332
sI2281
((F13030.200000044006
F3098.7999999972199
tp333
(F13665.200000041827
F3098.7999999979725
tp334
tp335
sI2282
((F13576.300000043517
F3822.7000000055068
tp336
(F13576.300000043517
F3721.1000000082004
tp337
tp338
sI2283
((F8661.3999999964708
F2705.1000000082322
tp339
(F8661.3999999964708
F2628.9000000122323
tp340
tp341
sI2284
((F13665.200000037519
F3911.6000000085919
tp342
(F13766.800000044746
F3911.6000000085919
tp343
tp344
sI2285
((F13766.800000044746
F3911.6000000085919
tp345
(F13766.800000044746
F2997.2000000005883
tp346
tp347
sI2286
((F8356.5999999948581
F2628.9000000122323
tp348
(F8356.5999999948581
F1384.3000000100487
tp349
tp350
sI2287
((F11188.700000048164
F2997.2000000005883
tp351
(F13766.800000044746
F2997.2000000005883
tp352
tp353
sI2288
((F9817.1000000402746
F1358.900000004202
tp354
(F11087.100000039944
F1358.900000004202
tp355
tp356
sI2289
((F8661.3999999964708
F2628.9000000122323
tp357
(F8356.5999999948581
F2628.9000000122323
tp358
tp359
sI2290
((F9817.100000045144
F3721.1000000089234
tp360
(F9994.9000000442975
F3721.1000000089234
tp361
tp362
sI2291
((F9994.9000000442975
F3721.1000000089234
tp363
(F9994.9000000442975
F3822.7000000067173
tp364
tp365
sI2292
((F10604.500000047135
F3822.7000000067173
tp366
(F10604.500000047135
F3721.1000000089234
tp367
tp368
sI2293
((F11087.100000039944
F1358.900000004202
tp369
(F11087.100000039944
F723.90000001089902
tp370
tp371
sI2294
((F10604.500000047135
F3721.1000000089234
tp372
(F10782.300000046289
F3721.1000000089234
tp373
tp374
sI2295
((F10604.500000047135
F3822.7000000067173
tp375
(F10883.900000046217
F3822.7000000077323
tp376
tp377
sI2296
((F11188.700000039247
F2997.2000000007711
tp378
(F11188.700000039247
F622.30000000531709
tp379
tp380
sI2297
((F13665.200000043898
F3822.7000000055068
tp381
(F13576.300000043517
F3822.7000000055068
tp382
tp383
sI2298
((F8762.9999999965385
F2705.1000000099666
tp384
(F8762.9999999965385
F2527.3000000123984
tp385
tp386
sI2299
((F11087.100000039087
F-507.99999997310078
tp387
(F7416.7999999929434
F-507.999999993448
tp388
tp389
sI2300
((F11188.700000039371
F-355.59999999723641
tp390
(F11087.100000039087
F-355.59999999723641
tp391
tp392
sI2301
((F11087.100000039087
F-355.59999999723641
tp393
(F11087.100000039087
F-507.99999997310078
tp394
tp395
sI2302
((F9715.5000000403015
F2247.9000000170327
tp396
(F9817.1000000402746
F2247.9000000170327
tp397
tp398
sI2303
((F9817.1000000402746
F2247.9000000170327
tp399
(F9817.1000000402746
F1460.5000000041755
tp400
tp401
ss.